target datalayout = "e-m:e-p270:32:32-p271:32:32-p272:64:64-i64:64-i128:128-f80:128-n8:16:32:64-S128"
target triple = "x86_64-pc-linux-gnu"

%struct._zval_struct = type { %union._zend_value, %union.anon, %union.anon.3 }
%union._zend_value = type { i64 }
%union.anon = type { i32 }
%union.anon.3 = type { i32 }
%struct._zend_array = type { %struct._zend_refcounted_h, %union.anon.5, i32, %union.anon.7, i32, i32, i32, i32, i64, ptr }
%struct._zend_refcounted_h = type { i32, %union.anon.4 }
%union.anon.4 = type { i32 }
%union.anon.5 = type { i32 }
%union.anon.7 = type { ptr }
%struct._zend_string = type { %struct._zend_refcounted_h, i64, i64, [1 x i8] }
%struct._Bucket = type { %struct._zval_struct, i64, ptr }

@zend_empty_string = external global ptr, align 8

; Function Attrs: nounwind uwtable
define internal i32 @ct_eval_in_array(ptr noundef %0, i32 noundef %1, ptr noundef %2, ptr noundef %3) #0 {
  %5 = alloca ptr, align 8
  %6 = alloca i64, align 8
  %7 = alloca ptr, align 8
  %8 = alloca ptr, align 8
  %9 = alloca ptr, align 8
  %10 = alloca ptr, align 8
  %11 = alloca i32, align 4
  %12 = alloca ptr, align 8
  %13 = alloca ptr, align 8
  %14 = alloca ptr, align 8
  %15 = alloca ptr, align 8
  %16 = alloca ptr, align 8
  %17 = alloca i32, align 4
  %18 = alloca ptr, align 8
  %19 = alloca i32, align 4
  %20 = alloca ptr, align 8
  %21 = alloca ptr, align 8
  %22 = alloca ptr, align 8
  %23 = alloca i8, align 1
  %24 = alloca ptr, align 8
  %25 = alloca %struct._zval_struct, align 8
  %26 = alloca ptr, align 8
  %27 = alloca ptr, align 8
  %28 = alloca ptr, align 8
  %29 = alloca ptr, align 8
  %30 = alloca ptr, align 8
  %31 = alloca ptr, align 8
  store ptr %0, ptr %18, align 8
  store i32 %1, ptr %19, align 4
  store ptr %2, ptr %20, align 8
  store ptr %3, ptr %21, align 8
  %32 = load ptr, ptr %21, align 8
  store ptr %32, ptr %12, align 8
  %33 = load ptr, ptr %12, align 8
  %34 = getelementptr inbounds %struct._zval_struct, ptr %33, i32 0, i32 1
  %35 = load i8, ptr %34, align 8
  %36 = zext i8 %35 to i32
  %37 = icmp ne i32 %36, 7
  br i1 %37, label %38, label %39

38:                                               ; preds = %4
  store i32 -1, ptr %17, align 4
  br label %187

39:                                               ; preds = %4
  %40 = load ptr, ptr %21, align 8
  %41 = getelementptr inbounds %struct._zval_struct, ptr %40, i32 0, i32 0
  %42 = load ptr, ptr %41, align 8
  store ptr %42, ptr %22, align 8
  %43 = load ptr, ptr %20, align 8
  store ptr %43, ptr %13, align 8
  %44 = load ptr, ptr %13, align 8
  %45 = getelementptr inbounds %struct._zval_struct, ptr %44, i32 0, i32 1
  %46 = load i8, ptr %45, align 8
  %47 = zext i8 %46 to i32
  %48 = icmp eq i32 %47, 6
  %49 = xor i1 %48, true
  %50 = xor i1 %49, true
  %51 = zext i1 %50 to i32
  %52 = sext i32 %51 to i64
  %53 = icmp ne i64 %52, 0
  br i1 %53, label %54, label %64

54:                                               ; preds = %39
  %55 = load ptr, ptr %22, align 8
  %56 = load ptr, ptr %20, align 8
  %57 = getelementptr inbounds %struct._zval_struct, ptr %56, i32 0, i32 0
  %58 = load ptr, ptr %57, align 8
  store ptr %55, ptr %7, align 8
  store ptr %58, ptr %8, align 8
  %59 = load ptr, ptr %7, align 8
  %60 = load ptr, ptr %8, align 8
  %61 = call ptr @zend_hash_find(ptr noundef %59, ptr noundef %60) #10
  %62 = icmp ne ptr %61, null
  %63 = zext i1 %62 to i8
  store i8 %63, ptr %23, align 1
  br label %179

64:                                               ; preds = %39
  %65 = load i32, ptr %19, align 4
  %66 = icmp ne i32 %65, 0
  br i1 %66, label %67, label %91

67:                                               ; preds = %64
  %68 = load ptr, ptr %20, align 8
  store ptr %68, ptr %14, align 8
  %69 = load ptr, ptr %14, align 8
  %70 = getelementptr inbounds %struct._zval_struct, ptr %69, i32 0, i32 1
  %71 = load i8, ptr %70, align 8
  %72 = zext i8 %71 to i32
  %73 = icmp eq i32 %72, 4
  %74 = xor i1 %73, true
  %75 = xor i1 %74, true
  %76 = zext i1 %75 to i32
  %77 = sext i32 %76 to i64
  %78 = icmp ne i64 %77, 0
  br i1 %78, label %79, label %89

79:                                               ; preds = %67
  %80 = load ptr, ptr %22, align 8
  %81 = load ptr, ptr %20, align 8
  %82 = getelementptr inbounds %struct._zval_struct, ptr %81, i32 0, i32 0
  %83 = load i64, ptr %82, align 8
  store ptr %80, ptr %5, align 8
  store i64 %83, ptr %6, align 8
  %84 = load ptr, ptr %5, align 8
  %85 = load i64, ptr %6, align 8
  %86 = call ptr @zend_hash_index_find(ptr noundef %84, i64 noundef %85) #10
  %87 = icmp ne ptr %86, null
  %88 = zext i1 %87 to i8
  store i8 %88, ptr %23, align 1
  br label %90

89:                                               ; preds = %67
  store i8 0, ptr %23, align 1
  br label %90

90:                                               ; preds = %89, %79
  br label %178

91:                                               ; preds = %64
  %92 = load ptr, ptr %20, align 8
  store ptr %92, ptr %15, align 8
  %93 = load ptr, ptr %15, align 8
  %94 = getelementptr inbounds %struct._zval_struct, ptr %93, i32 0, i32 1
  %95 = load i8, ptr %94, align 8
  %96 = zext i8 %95 to i32
  %97 = icmp sle i32 %96, 2
  br i1 %97, label %98, label %106

98:                                               ; preds = %91
  %99 = load ptr, ptr %22, align 8
  %100 = load ptr, ptr @zend_empty_string, align 8
  store ptr %99, ptr %9, align 8
  store ptr %100, ptr %10, align 8
  %101 = load ptr, ptr %9, align 8
  %102 = load ptr, ptr %10, align 8
  %103 = call ptr @zend_hash_find(ptr noundef %101, ptr noundef %102) #10
  %104 = icmp ne ptr %103, null
  %105 = zext i1 %104 to i8
  store i8 %105, ptr %23, align 1
  br label %177

106:                                              ; preds = %91
  store i8 0, ptr %23, align 1
  br label %107

107:                                              ; preds = %106
  %108 = load ptr, ptr %22, align 8
  store ptr %108, ptr %26, align 8
  %109 = load ptr, ptr %26, align 8
  %110 = getelementptr inbounds %struct._zend_array, ptr %109, i32 0, i32 3
  %111 = load ptr, ptr %110, align 8
  %112 = getelementptr inbounds %struct._Bucket, ptr %111, i64 0
  store ptr %112, ptr %27, align 8
  %113 = load ptr, ptr %26, align 8
  %114 = getelementptr inbounds %struct._zend_array, ptr %113, i32 0, i32 3
  %115 = load ptr, ptr %114, align 8
  %116 = load ptr, ptr %26, align 8
  %117 = getelementptr inbounds %struct._zend_array, ptr %116, i32 0, i32 4
  %118 = load i32, ptr %117, align 8
  %119 = zext i32 %118 to i64
  %120 = getelementptr inbounds %struct._Bucket, ptr %115, i64 %119
  store ptr %120, ptr %28, align 8
  %121 = load ptr, ptr %26, align 8
  %122 = getelementptr inbounds %struct._zend_array, ptr %121, i32 0, i32 1
  %123 = load i32, ptr %122, align 8
  %124 = and i32 %123, 4
  %125 = icmp ne i32 %124, 0
  %126 = xor i1 %125, true
  call void @llvm.assume(i1 %126)
  br label %127

127:                                              ; preds = %172, %107
  %128 = load ptr, ptr %27, align 8
  %129 = load ptr, ptr %28, align 8
  %130 = icmp ne ptr %128, %129
  br i1 %130, label %131, label %175

131:                                              ; preds = %127
  %132 = load ptr, ptr %27, align 8
  %133 = getelementptr inbounds %struct._Bucket, ptr %132, i32 0, i32 0
  store ptr %133, ptr %29, align 8
  %134 = load ptr, ptr %29, align 8
  store ptr %134, ptr %16, align 8
  %135 = load ptr, ptr %16, align 8
  %136 = getelementptr inbounds %struct._zval_struct, ptr %135, i32 0, i32 1
  %137 = load i8, ptr %136, align 8
  %138 = zext i8 %137 to i32
  %139 = icmp eq i32 %138, 0
  %140 = xor i1 %139, true
  %141 = xor i1 %140, true
  %142 = zext i1 %141 to i32
  %143 = sext i32 %142 to i64
  %144 = icmp ne i64 %143, 0
  br i1 %144, label %145, label %146

145:                                              ; preds = %131
  br label %172

146:                                              ; preds = %131
  %147 = load ptr, ptr %27, align 8
  %148 = getelementptr inbounds %struct._Bucket, ptr %147, i32 0, i32 2
  %149 = load ptr, ptr %148, align 8
  store ptr %149, ptr %24, align 8
  br label %150

150:                                              ; preds = %146
  store ptr %25, ptr %30, align 8
  %151 = load ptr, ptr %24, align 8
  store ptr %151, ptr %31, align 8
  %152 = load ptr, ptr %31, align 8
  %153 = load ptr, ptr %30, align 8
  %154 = getelementptr inbounds %struct._zval_struct, ptr %153, i32 0, i32 0
  store ptr %152, ptr %154, align 8
  %155 = load ptr, ptr %31, align 8
  %156 = getelementptr inbounds %struct._zend_string, ptr %155, i32 0, i32 0
  %157 = getelementptr inbounds %struct._zend_refcounted_h, ptr %156, i32 0, i32 1
  %158 = load i32, ptr %157, align 4
  store i32 %158, ptr %11, align 4
  %159 = load i32, ptr %11, align 4
  %160 = and i32 %159, 1008
  %161 = and i32 %160, 64
  %162 = icmp ne i32 %161, 0
  %163 = select i1 %162, i32 6, i32 262
  %164 = load ptr, ptr %30, align 8
  %165 = getelementptr inbounds %struct._zval_struct, ptr %164, i32 0, i32 1
  store i32 %163, ptr %165, align 8
  br label %166

166:                                              ; preds = %150
  %167 = load ptr, ptr %20, align 8
  %168 = call i32 @zend_compare(ptr noundef %167, ptr noundef %25)
  %169 = icmp eq i32 %168, 0
  br i1 %169, label %170, label %171

170:                                              ; preds = %166
  store i8 1, ptr %23, align 1
  br label %175

171:                                              ; preds = %166
  br label %172

172:                                              ; preds = %171, %145
  %173 = load ptr, ptr %27, align 8
  %174 = getelementptr inbounds %struct._Bucket, ptr %173, i32 1
  store ptr %174, ptr %27, align 8
  br label %127

175:                                              ; preds = %170, %127
  br label %176

176:                                              ; preds = %175
  br label %177

177:                                              ; preds = %176, %98
  br label %178

178:                                              ; preds = %177, %90
  br label %179

179:                                              ; preds = %178, %54
  br label %180

180:                                              ; preds = %179
  %181 = load i8, ptr %23, align 1
  %182 = trunc i8 %181 to i1
  %183 = select i1 %182, i32 3, i32 2
  %184 = load ptr, ptr %18, align 8
  %185 = getelementptr inbounds %struct._zval_struct, ptr %184, i32 0, i32 1
  store i32 %183, ptr %185, align 8
  br label %186

186:                                              ; preds = %180
  store i32 0, ptr %17, align 4
  br label %187

187:                                              ; preds = %186, %38
  %188 = load i32, ptr %17, align 4
  ret i32 %188
}