; Function Attrs: nounwind uwtable
define internal fastcc noundef i32 @ct_eval_in_array(ptr nocapture noundef writeonly %0, i32 noundef %1, ptr noundef %2, ptr nocapture noundef readonly %3) unnamed_addr #0 {
  %5 = alloca %struct._zval_struct, align 8
  %6 = getelementptr inbounds i8, ptr %3, i64 8
  %7 = load i8, ptr %6, align 8
  %.not = icmp eq i8 %7, 7
  br i1 %.not, label %8, label %55

8:                                                ; preds = %4
  %9 = load ptr, ptr %3, align 8
  %10 = getelementptr inbounds i8, ptr %2, i64 8
  %11 = load i8, ptr %10, align 8
  %12 = icmp eq i8 %11, 6
  br i1 %12, label %13, label %16

13:                                               ; preds = %8
  %14 = load ptr, ptr %2, align 8
  %15 = tail call ptr @zend_hash_find(ptr noundef %9, ptr noundef %14) #13
  %.fr59 = freeze ptr %15
  %.not60 = icmp eq ptr %.fr59, null
  br i1 %.not60, label %.thread, label %.thread51

16:                                               ; preds = %8
  %.not45 = icmp eq i32 %1, 0
  br i1 %.not45, label %22, label %17

17:                                               ; preds = %16
  %18 = icmp eq i8 %11, 4
  br i1 %18, label %19, label %.thread

19:                                               ; preds = %17
  %20 = load i64, ptr %2, align 8
  %21 = tail call ptr @zend_hash_index_find(ptr noundef %9, i64 noundef %20) #13
  %.fr = freeze ptr %21
  %.not56 = icmp eq ptr %.fr, null
  br i1 %.not56, label %.thread, label %.thread51

22:                                               ; preds = %16
  %23 = icmp ult i8 %11, 3
  br i1 %23, label %50, label %24

24:                                               ; preds = %22
  %25 = getelementptr inbounds i8, ptr %9, i64 16
  %26 = load ptr, ptr %25, align 8
  %27 = getelementptr inbounds i8, ptr %9, i64 24
  %28 = load i32, ptr %27, align 8
  %29 = zext i32 %28 to i64
  %30 = getelementptr inbounds %struct._Bucket, ptr %26, i64 %29
  %31 = getelementptr inbounds i8, ptr %9, i64 8
  %32 = load i32, ptr %31, align 8
  %33 = and i32 %32, 4
  %.not46 = icmp eq i32 %33, 0
  tail call void @llvm.assume(i1 %.not46)
  %.not4761 = icmp eq i32 %28, 0
  br i1 %.not4761, label %.thread, label %.lr.ph

.lr.ph:                                           ; preds = %24
  %34 = getelementptr inbounds i8, ptr %5, i64 8
  br label %35

35:                                               ; preds = %.lr.ph, %48
  %.04362 = phi ptr [ %26, %.lr.ph ], [ %49, %48 ]
  %36 = getelementptr inbounds i8, ptr %.04362, i64 8
  %37 = load i8, ptr %36, align 8
  %38 = icmp eq i8 %37, 0
  br i1 %38, label %48, label %39

39:                                               ; preds = %35
  %40 = getelementptr inbounds i8, ptr %.04362, i64 24
  %41 = load ptr, ptr %40, align 8
  store ptr %41, ptr %5, align 8
  %42 = getelementptr inbounds i8, ptr %41, i64 4
  %43 = load i32, ptr %42, align 4
  %44 = and i32 %43, 64
  %.not48 = icmp eq i32 %44, 0
  %45 = select i1 %.not48, i32 262, i32 6
  store i32 %45, ptr %34, align 8
  %46 = call i32 @zend_compare(ptr noundef %2, ptr noundef nonnull %5) #13
  %47 = icmp eq i32 %46, 0
  br i1 %47, label %.thread51, label %48

48:                                               ; preds = %39, %35
  %49 = getelementptr inbounds i8, ptr %.04362, i64 32
  %.not47 = icmp eq ptr %49, %30
  br i1 %.not47, label %.thread, label %35

50:                                               ; preds = %22
  %51 = load ptr, ptr @zend_empty_string, align 8
  %52 = tail call ptr @zend_hash_find(ptr noundef %9, ptr noundef %51) #13
  %.fr57 = freeze ptr %52
  %.not58 = icmp eq ptr %.fr57, null
  br i1 %.not58, label %.thread, label %.thread51

.thread51:                                        ; preds = %39, %19, %13, %50
  br label %.thread

.thread:                                          ; preds = %48, %24, %17, %19, %13, %50, %.thread51
  %53 = phi i32 [ 3, %.thread51 ], [ 2, %50 ], [ 2, %13 ], [ 2, %19 ], [ 2, %17 ], [ 2, %24 ], [ 2, %48 ]
  %54 = getelementptr inbounds i8, ptr %0, i64 8
  store i32 %53, ptr %54, align 8
  br label %55

55:                                               ; preds = %4, %.thread
  %.0 = phi i32 [ 0, %.thread ], [ -1, %4 ]
  ret i32 %.0
}